target datalayout = "e-m:e-p270:32:32-p271:32:32-p272:64:64-i64:64-i128:128-f80:128-n8:16:32:64-S128"
target triple = "x86_64-pc-linux-gnu"

%struct._packet_info = type { ptr, ptr, i32, i32, %struct.nstime_t, %struct.nstime_t, %struct.nstime_t, i8, ptr, ptr, ptr, ptr, %struct._address, %struct._address, %struct._address, %struct._address, %struct._address, %struct._address, i32, ptr, i8, [3 x i8], %struct.anon, i32, i32, i32, i32, ptr, i8, ptr, ptr, i16, i16, i32, i32, i16, i32, i32, ptr, ptr, ptr, i8, i8, i16, i16, i16, i32, i16, i16, ptr, ptr, ptr, ptr, ptr, i32, i32 }
%struct.nstime_t = type { i64, i32 }
%struct._address = type { i32, i32, ptr, ptr }
%struct.anon = type { i8, [3 x i8] }
%struct.length_indicator_t = type { i32, i8 }

@gsm_rlcmac_gprs_cs_to_block_length = hidden constant [4 x i8] c"\17!'5", align 1
@ett_data_segments = internal global i32 0, align 4
@hf_dl_data_spare = internal global i32 0, align 4
@hf_ul_data_spare = internal global i32 0, align 4
@hf_padding = internal global i32 0, align 4
@.str.2711 = private unnamed_addr constant [2 x i8] c" \00", align 1
@.str.2726 = private unnamed_addr constant [4 x i8] c"Len\00", align 1
@.str.2727 = private unnamed_addr constant [220 x i8] c"LI[%d]=%d indicates: The current LLC PDU would fit within current RLC data block but the addition of the length indicator octet (to indicate the LLC PDU boundary) causes the LLC PDU to extend into another RLC data block\00", align 1
@.str.2728 = private unnamed_addr constant [80 x i8] c"data segment: LI[%d]=%d indicates: The RLC data block contains only filler bits\00", align 1
@.str.2729 = private unnamed_addr constant [92 x i8] c"data segment: LI[%d]=%d indicates: The remainder of the RLC data block contains filler bits\00", align 1
@.str.2730 = private unnamed_addr constant [75 x i8] c"data segment: LI[%d]=%d indicates: (Last segment of) LLC frame (%d octets)\00", align 1
@.str.2731 = private unnamed_addr constant [190 x i8] c"data segment: LI not present: \0A The Upper Layer PDU in the current RLC data block either fills the current RLC data block precisely \0Aor continues in the following in-sequence RLC data block\00", align 1

; Function Attrs: null_pointer_is_valid sspstrong uwtable
define internal zeroext i8 @dissect_gprs_data_segments(ptr noundef %0, ptr noundef %1, ptr noundef %2, i8 noundef zeroext %3, i8 noundef zeroext %4, i1 noundef zeroext %5, i8 noundef zeroext %6, i8 noundef zeroext %7, ptr noundef %8) #0 {
  %10 = alloca ptr, align 8
  %11 = alloca ptr, align 8
  %12 = alloca ptr, align 8
  %13 = alloca i8, align 1
  %14 = alloca i8, align 1
  %15 = alloca i8, align 1
  %16 = alloca i8, align 1
  %17 = alloca i8, align 1
  %18 = alloca ptr, align 8
  %19 = alloca i8, align 1
  %20 = alloca i8, align 1
  %21 = alloca ptr, align 8
  %22 = alloca i8, align 1
  %23 = alloca i8, align 1
  %24 = alloca ptr, align 8
  %25 = alloca i8, align 1
  %26 = alloca i8, align 1
  store ptr %0, ptr %10, align 8
  store ptr %1, ptr %11, align 8
  store ptr %2, ptr %12, align 8
  store i8 %3, ptr %13, align 1
  store i8 %4, ptr %14, align 1
  %27 = zext i1 %5 to i8
  store i8 %27, ptr %15, align 1
  store i8 %6, ptr %16, align 1
  store i8 %7, ptr %17, align 1
  store ptr %8, ptr %18, align 8
  call void @llvm.lifetime.start.p0(i64 1, ptr %19) #5
  %28 = load i8, ptr %13, align 1
  store i8 %28, ptr %19, align 1
  call void @llvm.lifetime.start.p0(i64 1, ptr %20) #5
  call void @llvm.lifetime.start.p0(i64 8, ptr %21) #5
  store ptr null, ptr %21, align 8
  call void @llvm.lifetime.start.p0(i64 1, ptr %22) #5
  store i8 1, ptr %22, align 1
  call void @llvm.lifetime.start.p0(i64 1, ptr %23) #5
  store i8 1, ptr %23, align 1
  call void @llvm.lifetime.start.p0(i64 8, ptr %24) #5
  store ptr null, ptr %24, align 8
  call void @llvm.lifetime.start.p0(i64 1, ptr %25) #5
  %29 = load i8, ptr %16, align 1
  %30 = zext i8 %29 to i32
  %31 = sub i32 %30, 1
  %32 = sext i32 %31 to i64
  %33 = getelementptr [4 x i8], ptr @gsm_rlcmac_gprs_cs_to_block_length, i64 0, i64 %32
  %34 = load i8, ptr %33, align 1
  store i8 %34, ptr %25, align 1
  %35 = load i8, ptr %25, align 1
  %36 = zext i8 %35 to i32
  %37 = load i8, ptr %14, align 1
  %38 = zext i8 %37 to i32
  %39 = icmp sgt i32 %36, %38
  br i1 %39, label %40, label %42

40:                                               ; preds = %9
  %41 = load i8, ptr %14, align 1
  store i8 %41, ptr %25, align 1
  br label %42

42:                                               ; preds = %40, %9
  store i8 0, ptr %20, align 1
  br label %43

43:                                               ; preds = %194, %42
  %44 = load i8, ptr %20, align 1
  %45 = zext i8 %44 to i32
  %46 = load i8, ptr %17, align 1
  %47 = zext i8 %46 to i32
  %48 = icmp slt i32 %45, %47
  br i1 %48, label %49, label %52

49:                                               ; preds = %43
  %50 = load i8, ptr %22, align 1, !range !8, !noundef !9
  %51 = trunc i8 %50 to i1
  br label %52

52:                                               ; preds = %49, %43
  %53 = phi i1 [ false, %43 ], [ %51, %49 ]
  br i1 %53, label %54, label %197

54:                                               ; preds = %52
  call void @llvm.lifetime.start.p0(i64 1, ptr %26) #5
  %55 = load ptr, ptr %18, align 8
  %56 = load i8, ptr %20, align 1
  %57 = zext i8 %56 to i64
  %58 = getelementptr %struct.length_indicator_t, ptr %55, i64 %57
  %59 = getelementptr inbounds nuw %struct.length_indicator_t, ptr %58, i32 0, i32 1
  %60 = load i8, ptr %59, align 4
  %61 = zext i8 %60 to i32
  %62 = ashr i32 %61, 2
  %63 = trunc i32 %62 to i8
  store i8 %63, ptr %26, align 1
  %64 = load ptr, ptr %18, align 8
  %65 = load i8, ptr %20, align 1
  %66 = zext i8 %65 to i64
  %67 = getelementptr %struct.length_indicator_t, ptr %64, i64 %66
  %68 = getelementptr inbounds nuw %struct.length_indicator_t, ptr %67, i32 0, i32 1
  %69 = load i8, ptr %68, align 4
  %70 = zext i8 %69 to i32
  %71 = and i32 %70, 2
  %72 = icmp eq i32 %71, 2
  %73 = zext i1 %72 to i8
  store i8 %73, ptr %22, align 1
  %74 = load i8, ptr %26, align 1
  %75 = zext i8 %74 to i32
  switch i32 %75, label %157 [
    i32 0, label %76
    i32 63, label %113
  ]

76:                                               ; preds = %54
  %77 = load ptr, ptr %11, align 8
  %78 = getelementptr inbounds nuw %struct._packet_info, ptr %77, i32 0, i32 1
  %79 = load ptr, ptr %78, align 8
  %80 = load i8, ptr %25, align 1
  %81 = zext i8 %80 to i32
  %82 = load i8, ptr %19, align 1
  %83 = zext i8 %82 to i32
  %84 = sub i32 %81, %83
  call void @col_append_str_uint(ptr noundef %79, i32 noundef 25, ptr noundef @.str.2726, i32 noundef %84, ptr noundef @.str.2711)
  %85 = load ptr, ptr %12, align 8
  %86 = load ptr, ptr %10, align 8
  %87 = load ptr, ptr %18, align 8
  %88 = load i8, ptr %20, align 1
  %89 = zext i8 %88 to i64
  %90 = getelementptr %struct.length_indicator_t, ptr %87, i64 %89
  %91 = getelementptr inbounds nuw %struct.length_indicator_t, ptr %90, i32 0, i32 0
  %92 = load i32, ptr %91, align 4
  %93 = load i32, ptr @ett_data_segments, align 4
  %94 = load i8, ptr %20, align 1
  %95 = zext i8 %94 to i32
  %96 = load i8, ptr %26, align 1
  %97 = zext i8 %96 to i32
  %98 = call ptr (ptr, ptr, i32, i32, i32, ptr, ptr, ...) @proto_tree_add_subtree_format(ptr noundef %85, ptr noundef %86, i32 noundef %92, i32 noundef 1, i32 noundef %93, ptr noundef null, ptr noundef @.str.2727, i32 noundef %95, i32 noundef %97)
  store ptr %98, ptr %24, align 8
  %99 = load ptr, ptr %10, align 8
  %100 = load i8, ptr %19, align 1
  %101 = zext i8 %100 to i32
  %102 = load i8, ptr %25, align 1
  %103 = zext i8 %102 to i32
  %104 = load i8, ptr %19, align 1
  %105 = zext i8 %104 to i32
  %106 = sub i32 %103, %105
  %107 = call ptr @tvb_new_subset_length(ptr noundef %99, i32 noundef %101, i32 noundef %106)
  store ptr %107, ptr %21, align 8
  %108 = load ptr, ptr %21, align 8
  %109 = load ptr, ptr %11, align 8
  %110 = load ptr, ptr %24, align 8
  %111 = call i32 @call_data_dissector(ptr noundef %108, ptr noundef %109, ptr noundef %110)
  %112 = load i8, ptr %25, align 1
  store i8 %112, ptr %19, align 1
  br label %193

113:                                              ; preds = %54
  %114 = load i8, ptr %23, align 1, !range !8, !noundef !9
  %115 = trunc i8 %114 to i1
  br i1 %115, label %116, label %129

116:                                              ; preds = %113
  %117 = load ptr, ptr %12, align 8
  %118 = load ptr, ptr %10, align 8
  %119 = load i8, ptr %19, align 1
  %120 = zext i8 %119 to i32
  %121 = load i8, ptr %26, align 1
  %122 = zext i8 %121 to i32
  %123 = load i32, ptr @ett_data_segments, align 4
  %124 = load i8, ptr %20, align 1
  %125 = zext i8 %124 to i32
  %126 = load i8, ptr %26, align 1
  %127 = zext i8 %126 to i32
  %128 = call ptr (ptr, ptr, i32, i32, i32, ptr, ptr, ...) @proto_tree_add_subtree_format(ptr noundef %117, ptr noundef %118, i32 noundef %120, i32 noundef %122, i32 noundef %123, ptr noundef null, ptr noundef @.str.2728, i32 noundef %125, i32 noundef %127)
  store ptr %128, ptr %24, align 8
  br label %142

129:                                              ; preds = %113
  %130 = load ptr, ptr %12, align 8
  %131 = load ptr, ptr %10, align 8
  %132 = load i8, ptr %19, align 1
  %133 = zext i8 %132 to i32
  %134 = load i8, ptr %26, align 1
  %135 = zext i8 %134 to i32
  %136 = load i32, ptr @ett_data_segments, align 4
  %137 = load i8, ptr %20, align 1
  %138 = zext i8 %137 to i32
  %139 = load i8, ptr %26, align 1
  %140 = zext i8 %139 to i32
  %141 = call ptr (ptr, ptr, i32, i32, i32, ptr, ptr, ...) @proto_tree_add_subtree_format(ptr noundef %130, ptr noundef %131, i32 noundef %133, i32 noundef %135, i32 noundef %136, ptr noundef null, ptr noundef @.str.2729, i32 noundef %138, i32 noundef %140)
  store ptr %141, ptr %24, align 8
  br label %142

142:                                              ; preds = %129, %116
  %143 = load ptr, ptr %10, align 8
  %144 = load i8, ptr %19, align 1
  %145 = zext i8 %144 to i32
  %146 = load i8, ptr %25, align 1
  %147 = zext i8 %146 to i32
  %148 = load i8, ptr %19, align 1
  %149 = zext i8 %148 to i32
  %150 = sub i32 %147, %149
  %151 = call ptr @tvb_new_subset_length(ptr noundef %143, i32 noundef %145, i32 noundef %150)
  store ptr %151, ptr %21, align 8
  %152 = load ptr, ptr %21, align 8
  %153 = load ptr, ptr %11, align 8
  %154 = load ptr, ptr %24, align 8
  %155 = call i32 @call_data_dissector(ptr noundef %152, ptr noundef %153, ptr noundef %154)
  %156 = load i8, ptr %25, align 1
  store i8 %156, ptr %19, align 1
  br label %193

157:                                              ; preds = %54
  %158 = load ptr, ptr %11, align 8
  %159 = getelementptr inbounds nuw %struct._packet_info, ptr %158, i32 0, i32 1
  %160 = load ptr, ptr %159, align 8
  %161 = load i8, ptr %26, align 1
  %162 = zext i8 %161 to i32
  call void @col_append_str_uint(ptr noundef %160, i32 noundef 25, ptr noundef @.str.2726, i32 noundef %162, ptr noundef @.str.2711)
  %163 = load ptr, ptr %12, align 8
  %164 = load ptr, ptr %10, align 8
  %165 = load i8, ptr %19, align 1
  %166 = zext i8 %165 to i32
  %167 = load i8, ptr %26, align 1
  %168 = zext i8 %167 to i32
  %169 = load i32, ptr @ett_data_segments, align 4
  %170 = load i8, ptr %20, align 1
  %171 = zext i8 %170 to i32
  %172 = load i8, ptr %26, align 1
  %173 = zext i8 %172 to i32
  %174 = load i8, ptr %26, align 1
  %175 = zext i8 %174 to i32
  %176 = call ptr (ptr, ptr, i32, i32, i32, ptr, ptr, ...) @proto_tree_add_subtree_format(ptr noundef %163, ptr noundef %164, i32 noundef %166, i32 noundef %168, i32 noundef %169, ptr noundef null, ptr noundef @.str.2730, i32 noundef %171, i32 noundef %173, i32 noundef %175)
  store ptr %176, ptr %24, align 8
  %177 = load ptr, ptr %10, align 8
  %178 = load i8, ptr %19, align 1
  %179 = zext i8 %178 to i32
  %180 = load i8, ptr %26, align 1
  %181 = zext i8 %180 to i32
  %182 = call ptr @tvb_new_subset_length(ptr noundef %177, i32 noundef %179, i32 noundef %181)
  store ptr %182, ptr %21, align 8
  %183 = load ptr, ptr %21, align 8
  %184 = load ptr, ptr %11, align 8
  %185 = load ptr, ptr %24, align 8
  %186 = call i32 @call_data_dissector(ptr noundef %183, ptr noundef %184, ptr noundef %185)
  %187 = load i8, ptr %26, align 1
  %188 = zext i8 %187 to i32
  %189 = load i8, ptr %19, align 1
  %190 = zext i8 %189 to i32
  %191 = add i32 %190, %188
  %192 = trunc i32 %191 to i8
  store i8 %192, ptr %19, align 1
  br label %193

193:                                              ; preds = %157, %142, %76
  store i8 0, ptr %23, align 1
  call void @llvm.lifetime.end.p0(i64 1, ptr %26) #5
  br label %194

194:                                              ; preds = %193
  %195 = load i8, ptr %20, align 1
  %196 = add i8 %195, 1
  store i8 %196, ptr %20, align 1
  br label %43, !llvm.loop !10

197:                                              ; preds = %52
  %198 = load i8, ptr %19, align 1
  %199 = zext i8 %198 to i32
  %200 = load i8, ptr %25, align 1
  %201 = zext i8 %200 to i32
  %202 = icmp slt i32 %199, %201
  br i1 %202, label %203, label %252

203:                                              ; preds = %197
  %204 = load i8, ptr %22, align 1, !range !8, !noundef !9
  %205 = trunc i8 %204 to i1
  br i1 %205, label %206, label %239

206:                                              ; preds = %203
  %207 = load ptr, ptr %11, align 8
  %208 = getelementptr inbounds nuw %struct._packet_info, ptr %207, i32 0, i32 1
  %209 = load ptr, ptr %208, align 8
  %210 = load i8, ptr %25, align 1
  %211 = zext i8 %210 to i32
  %212 = load i8, ptr %19, align 1
  %213 = zext i8 %212 to i32
  %214 = sub i32 %211, %213
  call void @col_append_str_uint(ptr noundef %209, i32 noundef 25, ptr noundef @.str.2726, i32 noundef %214, ptr noundef @.str.2711)
  %215 = load ptr, ptr %12, align 8
  %216 = load ptr, ptr %10, align 8
  %217 = load i8, ptr %19, align 1
  %218 = zext i8 %217 to i32
  %219 = load i8, ptr %25, align 1
  %220 = zext i8 %219 to i32
  %221 = load i8, ptr %19, align 1
  %222 = zext i8 %221 to i32
  %223 = sub i32 %220, %222
  %224 = load i32, ptr @ett_data_segments, align 4
  %225 = call ptr (ptr, ptr, i32, i32, i32, ptr, ptr, ...) @proto_tree_add_subtree_format(ptr noundef %215, ptr noundef %216, i32 noundef %218, i32 noundef %223, i32 noundef %224, ptr noundef null, ptr noundef @.str.2731)
  store ptr %225, ptr %24, align 8
  %226 = load ptr, ptr %10, align 8
  %227 = load i8, ptr %19, align 1
  %228 = zext i8 %227 to i32
  %229 = load i8, ptr %25, align 1
  %230 = zext i8 %229 to i32
  %231 = load i8, ptr %19, align 1
  %232 = zext i8 %231 to i32
  %233 = sub i32 %230, %232
  %234 = call ptr @tvb_new_subset_length(ptr noundef %226, i32 noundef %228, i32 noundef %233)
  store ptr %234, ptr %21, align 8
  %235 = load ptr, ptr %21, align 8
  %236 = load ptr, ptr %11, align 8
  %237 = load ptr, ptr %24, align 8
  %238 = call i32 @call_data_dissector(ptr noundef %235, ptr noundef %236, ptr noundef %237)
  br label %251

239:                                              ; preds = %203
  %240 = load ptr, ptr %12, align 8
  %241 = load i32, ptr @hf_padding, align 4
  %242 = load ptr, ptr %10, align 8
  %243 = load i8, ptr %19, align 1
  %244 = zext i8 %243 to i32
  %245 = load i8, ptr %25, align 1
  %246 = zext i8 %245 to i32
  %247 = load i8, ptr %19, align 1
  %248 = zext i8 %247 to i32
  %249 = sub i32 %246, %248
  %250 = call ptr @proto_tree_add_bytes_item(ptr noundef %240, i32 noundef %241, ptr noundef %242, i32 noundef %244, i32 noundef %249, i32 noundef 0, ptr noundef null, ptr noundef null, ptr noundef null)
  br label %251

251:                                              ; preds = %239, %206
  br label %252

252:                                              ; preds = %251, %197
  %253 = load i8, ptr %25, align 1
  store i8 %253, ptr %19, align 1
  %254 = load i8, ptr %19, align 1
  %255 = zext i8 %254 to i32
  %256 = load i8, ptr %14, align 1
  %257 = zext i8 %256 to i32
  %258 = icmp slt i32 %255, %257
  br i1 %258, label %259, label %280

259:                                              ; preds = %252
  %260 = load ptr, ptr %12, align 8
  %261 = load i8, ptr %15, align 1, !range !8, !noundef !9
  %262 = trunc i8 %261 to i1
  br i1 %262, label %263, label %265

263:                                              ; preds = %259
  %264 = load i32, ptr @hf_ul_data_spare, align 4
  br label %267

265:                                              ; preds = %259
  %266 = load i32, ptr @hf_dl_data_spare, align 4
  br label %267

267:                                              ; preds = %265, %263
  %268 = phi i32 [ %264, %263 ], [ %266, %265 ]
  %269 = load ptr, ptr %10, align 8
  %270 = load i8, ptr %19, align 1
  %271 = zext i8 %270 to i32
  %272 = mul i32 %271, 8
  %273 = load i8, ptr %14, align 1
  %274 = zext i8 %273 to i32
  %275 = load i8, ptr %19, align 1
  %276 = zext i8 %275 to i32
  %277 = sub i32 %274, %276
  %278 = mul i32 %277, 8
  %279 = call ptr @proto_tree_add_bits_item(ptr noundef %260, i32 noundef %268, ptr noundef %269, i32 noundef %272, i32 noundef %278, i32 noundef 0)
  br label %280

280:                                              ; preds = %267, %252
  %281 = load i8, ptr %14, align 1
  call void @llvm.lifetime.end.p0(i64 1, ptr %25) #5
  call void @llvm.lifetime.end.p0(i64 8, ptr %24) #5
  call void @llvm.lifetime.end.p0(i64 1, ptr %23) #5
  call void @llvm.lifetime.end.p0(i64 1, ptr %22) #5
  call void @llvm.lifetime.end.p0(i64 8, ptr %21) #5
  call void @llvm.lifetime.end.p0(i64 1, ptr %20) #5
  call void @llvm.lifetime.end.p0(i64 1, ptr %19) #5
  ret i8 %281
}