; Function Attrs: null_pointer_is_valid sspstrong uwtable
define internal fastcc noundef zeroext i8 @dissect_gprs_data_segments(ptr noundef %0, ptr noundef %1, ptr noundef %2, i8 noundef zeroext %3, i8 noundef returned zeroext %4, i1 noundef zeroext %5, i8 noundef zeroext range(i8 0, 16) %6, i8 noundef zeroext %7, ptr noundef readonly captures(none) %8) unnamed_addr #0 {
  %10 = zext nneg i8 %6 to i64
  %11 = add nsw i64 %10, -1
  %12 = getelementptr [4 x i8], ptr @gsm_rlcmac_gprs_cs_to_block_length, i64 0, i64 %11
  %13 = load i8, ptr %12, align 1
  %spec.select = tail call i8 @llvm.umin.i8(i8 %13, i8 %4)
  %.not = icmp eq i8 %7, 0
  %.pre = zext i8 %spec.select to i32
  br i1 %.not, label %._crit_edge.thread, label %.lr.ph

.lr.ph:                                           ; preds = %9
  %14 = getelementptr inbounds nuw i8, ptr %1, i64 8
  %15 = zext i8 %7 to i64
  br label %16

16:                                               ; preds = %.lr.ph, %49
  %indvars.iv = phi i64 [ 0, %.lr.ph ], [ %indvars.iv.next, %49 ]
  %17 = phi i32 [ 0, %.lr.ph ], [ %50, %49 ]
  %.0115 = phi i8 [ %3, %.lr.ph ], [ %.1, %49 ]
  %.0103114 = phi ptr [ @.str.2728, %.lr.ph ], [ @.str.2729, %49 ]
  %18 = getelementptr %struct.length_indicator_t, ptr %8, i64 %indvars.iv
  %19 = getelementptr inbounds nuw i8, ptr %18, i64 4
  %20 = load i8, ptr %19, align 4
  %21 = lshr i8 %20, 2
  %22 = and i8 %20, 2
  %23 = icmp ne i8 %22, 0
  switch i8 %21, label %40 [
    i8 0, label %24
    i8 63, label %33
  ]

24:                                               ; preds = %16
  %25 = load ptr, ptr %14, align 8
  %26 = zext i8 %.0115 to i32
  %27 = sub nsw i32 %.pre, %26
  tail call void @col_append_str_uint(ptr noundef %25, i32 noundef 25, ptr noundef nonnull @.str.2726, i32 noundef %27, ptr noundef nonnull @.str.2711)
  %28 = load i32, ptr %18, align 4
  %29 = load i32, ptr @ett_data_segments, align 4
  %30 = tail call ptr (ptr, ptr, i32, i32, i32, ptr, ptr, ...) @proto_tree_add_subtree_format(ptr noundef %2, ptr noundef %0, i32 noundef %28, i32 noundef 1, i32 noundef %29, ptr noundef null, ptr noundef nonnull @.str.2727, i32 noundef %17, i32 noundef 0)
  %31 = tail call ptr @tvb_new_subset_length(ptr noundef %0, i32 noundef %26, i32 noundef %27)
  %32 = tail call i32 @call_data_dissector(ptr noundef %31, ptr noundef %1, ptr noundef %30)
  br label %49

33:                                               ; preds = %16
  %34 = zext i8 %.0115 to i32
  %35 = load i32, ptr @ett_data_segments, align 4
  %36 = tail call ptr (ptr, ptr, i32, i32, i32, ptr, ptr, ...) @proto_tree_add_subtree_format(ptr noundef %2, ptr noundef %0, i32 noundef %34, i32 noundef 63, i32 noundef %35, ptr noundef null, ptr noundef nonnull %.0103114, i32 noundef %17, i32 noundef 63)
  %37 = sub nsw i32 %.pre, %34
  %38 = tail call ptr @tvb_new_subset_length(ptr noundef %0, i32 noundef %34, i32 noundef %37)
  %39 = tail call i32 @call_data_dissector(ptr noundef %38, ptr noundef %1, ptr noundef %36)
  br label %49

40:                                               ; preds = %16
  %41 = zext nneg i8 %21 to i32
  %42 = load ptr, ptr %14, align 8
  tail call void @col_append_str_uint(ptr noundef %42, i32 noundef 25, ptr noundef nonnull @.str.2726, i32 noundef %41, ptr noundef nonnull @.str.2711)
  %43 = zext i8 %.0115 to i32
  %44 = load i32, ptr @ett_data_segments, align 4
  %45 = tail call ptr (ptr, ptr, i32, i32, i32, ptr, ptr, ...) @proto_tree_add_subtree_format(ptr noundef %2, ptr noundef %0, i32 noundef %43, i32 noundef %41, i32 noundef %44, ptr noundef null, ptr noundef nonnull @.str.2730, i32 noundef %17, i32 noundef %41, i32 noundef %41)
  %46 = tail call ptr @tvb_new_subset_length(ptr noundef %0, i32 noundef %43, i32 noundef %41)
  %47 = tail call i32 @call_data_dissector(ptr noundef %46, ptr noundef %1, ptr noundef %45)
  %48 = add i8 %21, %.0115
  br label %49

49:                                               ; preds = %40, %33, %24
  %.1 = phi i8 [ %48, %40 ], [ %spec.select, %33 ], [ %spec.select, %24 ]
  %indvars.iv.next = add nuw nsw i64 %indvars.iv, 1
  %50 = trunc nuw i64 %indvars.iv.next to i32
  %51 = icmp samesign ult i64 %indvars.iv.next, %15
  %52 = and i1 %51, %23
  br i1 %52, label %16, label %._crit_edge, !llvm.loop !9

._crit_edge:                                      ; preds = %49
  %53 = zext i8 %.1 to i32
  %54 = icmp ult i8 %.1, %spec.select
  br i1 %54, label %57, label %70

._crit_edge.thread:                               ; preds = %9
  %55 = zext i8 %3 to i32
  %56 = icmp ult i8 %3, %spec.select
  br i1 %56, label %.thread, label %70

57:                                               ; preds = %._crit_edge
  br i1 %23, label %.thread, label %66

.thread:                                          ; preds = %._crit_edge.thread, %57
  %58 = phi i32 [ %53, %57 ], [ %55, %._crit_edge.thread ]
  %59 = getelementptr inbounds nuw i8, ptr %1, i64 8
  %60 = load ptr, ptr %59, align 8
  %61 = sub nsw i32 %.pre, %58
  tail call void @col_append_str_uint(ptr noundef %60, i32 noundef 25, ptr noundef nonnull @.str.2726, i32 noundef %61, ptr noundef nonnull @.str.2711)
  %62 = load i32, ptr @ett_data_segments, align 4
  %63 = tail call ptr (ptr, ptr, i32, i32, i32, ptr, ptr, ...) @proto_tree_add_subtree_format(ptr noundef %2, ptr noundef %0, i32 noundef %58, i32 noundef %61, i32 noundef %62, ptr noundef null, ptr noundef nonnull @.str.2731)
  %64 = tail call ptr @tvb_new_subset_length(ptr noundef %0, i32 noundef %58, i32 noundef %61)
  %65 = tail call i32 @call_data_dissector(ptr noundef %64, ptr noundef %1, ptr noundef %63)
  br label %70

66:                                               ; preds = %57
  %67 = load i32, ptr @hf_padding, align 4
  %68 = sub nsw i32 %.pre, %53
  %69 = tail call ptr @proto_tree_add_bytes_item(ptr noundef %2, i32 noundef %67, ptr noundef %0, i32 noundef %53, i32 noundef %68, i32 noundef 0, ptr noundef null, ptr noundef null, ptr noundef null)
  br label %70

70:                                               ; preds = %._crit_edge.thread, %.thread, %66, %._crit_edge
  %71 = icmp ult i8 %13, %4
  br i1 %71, label %72, label %80

72:                                               ; preds = %70
  %73 = load i32, ptr @hf_ul_data_spare, align 4
  %74 = load i32, ptr @hf_dl_data_spare, align 4
  %75 = select i1 %5, i32 %73, i32 %74
  %76 = shl nuw nsw i32 %.pre, 3
  %narrow = sub nuw i8 %4, %spec.select
  %77 = zext i8 %narrow to i32
  %78 = shl nuw nsw i32 %77, 3
  %79 = tail call ptr @proto_tree_add_bits_item(ptr noundef %2, i32 noundef %75, ptr noundef %0, i32 noundef %76, i32 noundef %78, i32 noundef 0)
  br label %80

80:                                               ; preds = %72, %70
  ret i8 %4
}